target datalayout = "e-m:e-p270:32:32-p271:32:32-p272:64:64-i64:64-i128:128-f80:128-n8:16:32:64-S128"
target triple = "x86_64-pc-linux-gnu"

%struct.XML_Memory_Handling_Suite = type { ptr, ptr, ptr }
%struct.XML_ParserStruct = type { ptr, ptr, ptr, %struct.XML_Memory_Handling_Suite, ptr, ptr, ptr, i64, ptr, i64, i8, i32, ptr, ptr, ptr, ptr, ptr, ptr, ptr, ptr, ptr, ptr, ptr, ptr, ptr, ptr, ptr, ptr, ptr, ptr, ptr, ptr, ptr, ptr, ptr, ptr, ptr, ptr, %struct.INIT_ENCODING, ptr, ptr, i8, i8, ptr, ptr, ptr, ptr, %struct.prolog_state, ptr, i32, ptr, ptr, ptr, ptr, ptr, i8, i32, ptr, ptr, ptr, ptr, ptr, ptr, ptr, ptr, ptr, i8, i8, ptr, ptr, ptr, ptr, ptr, ptr, i32, i32, i32, ptr, ptr, i64, i8, %struct.position, %struct.STRING_POOL, %struct.STRING_POOL, ptr, i32, i8, ptr, %struct.XML_ParsingStatus, i64 }
%struct.INIT_ENCODING = type { %struct.encoding, ptr }
%struct.encoding = type { [3 x ptr], [2 x ptr], ptr, ptr, ptr, ptr, ptr, ptr, ptr, ptr, ptr, ptr, i32, i8, i8 }
%struct.prolog_state = type { ptr, i32, i32 }
%struct.position = type { i64, i64 }
%struct.STRING_POOL = type { ptr, ptr, ptr, ptr, ptr, ptr }
%struct.XML_ParsingStatus = type { i32, i8 }

; Function Attrs: nounwind uwtable
define dso_local i32 @XML_StopParser(ptr noundef %0, i8 noundef zeroext %1) #0 {
  %3 = alloca i32, align 4
  %4 = alloca ptr, align 8
  %5 = alloca i8, align 1
  store ptr %0, ptr %4, align 8, !tbaa !13
  store i8 %1, ptr %5, align 1, !tbaa !10
  %6 = load ptr, ptr %4, align 8, !tbaa !13
  %7 = icmp eq ptr %6, null
  br i1 %7, label %8, label %9

8:                                                ; preds = %2
  store i32 0, ptr %3, align 4
  br label %40

9:                                                ; preds = %2
  %10 = load ptr, ptr %4, align 8, !tbaa !13
  %11 = getelementptr inbounds nuw %struct.XML_ParserStruct, ptr %10, i32 0, i32 88
  %12 = getelementptr inbounds nuw %struct.XML_ParsingStatus, ptr %11, i32 0, i32 0
  %13 = load i32, ptr %12, align 8, !tbaa !140
  switch i32 %13, label %27 [
    i32 3, label %14
    i32 2, label %24
  ]

14:                                               ; preds = %9
  %15 = load i8, ptr %5, align 1, !tbaa !10
  %16 = icmp ne i8 %15, 0
  br i1 %16, label %17, label %20

17:                                               ; preds = %14
  %18 = load ptr, ptr %4, align 8, !tbaa !13
  %19 = getelementptr inbounds nuw %struct.XML_ParserStruct, ptr %18, i32 0, i32 49
  store i32 33, ptr %19, align 8, !tbaa !133
  store i32 0, ptr %3, align 4
  br label %40

20:                                               ; preds = %14
  %21 = load ptr, ptr %4, align 8, !tbaa !13
  %22 = getelementptr inbounds nuw %struct.XML_ParserStruct, ptr %21, i32 0, i32 88
  %23 = getelementptr inbounds nuw %struct.XML_ParsingStatus, ptr %22, i32 0, i32 0
  store i32 2, ptr %23, align 8, !tbaa !140
  br label %39

24:                                               ; preds = %9
  %25 = load ptr, ptr %4, align 8, !tbaa !13
  %26 = getelementptr inbounds nuw %struct.XML_ParserStruct, ptr %25, i32 0, i32 49
  store i32 36, ptr %26, align 8, !tbaa !133
  store i32 0, ptr %3, align 4
  br label %40

27:                                               ; preds = %9
  %28 = load i8, ptr %5, align 1, !tbaa !10
  %29 = icmp ne i8 %28, 0
  br i1 %29, label %30, label %34

30:                                               ; preds = %27
  %31 = load ptr, ptr %4, align 8, !tbaa !13
  %32 = getelementptr inbounds nuw %struct.XML_ParserStruct, ptr %31, i32 0, i32 88
  %33 = getelementptr inbounds nuw %struct.XML_ParsingStatus, ptr %32, i32 0, i32 0
  store i32 3, ptr %33, align 8, !tbaa !140
  br label %38

34:                                               ; preds = %27
  %35 = load ptr, ptr %4, align 8, !tbaa !13
  %36 = getelementptr inbounds nuw %struct.XML_ParserStruct, ptr %35, i32 0, i32 88
  %37 = getelementptr inbounds nuw %struct.XML_ParsingStatus, ptr %36, i32 0, i32 0
  store i32 2, ptr %37, align 8, !tbaa !140
  br label %38

38:                                               ; preds = %34, %30
  br label %39

39:                                               ; preds = %38, %20
  store i32 1, ptr %3, align 4
  br label %40

40:                                               ; preds = %39, %24, %17, %8
  %41 = load i32, ptr %3, align 4
  ret i32 %41
}