; Function Attrs: mustprogress nofree norecurse nosync nounwind willreturn memory(argmem: readwrite) uwtable
define dso_local range(i32 0, 2) i32 @XML_StopParser(ptr noundef %0, i8 noundef zeroext %1) local_unnamed_addr #4 {
  %3 = icmp eq ptr %0, null
  br i1 %3, label %16, label %4

4:                                                ; preds = %2
  %5 = getelementptr inbounds nuw i8, ptr %0, i64 896
  %6 = load i32, ptr %5, align 8, !tbaa !79
  switch i32 %6, label %13 [
    i32 3, label %7
    i32 2, label %11
  ]

7:                                                ; preds = %4
  %.not = icmp eq i8 %1, 0
  br i1 %.not, label %10, label %8

8:                                                ; preds = %7
  %9 = getelementptr inbounds nuw i8, ptr %0, i64 528
  store i32 33, ptr %9, align 8, !tbaa !71
  br label %16

10:                                               ; preds = %7
  store i32 2, ptr %5, align 8, !tbaa !79
  br label %16

11:                                               ; preds = %4
  %12 = getelementptr inbounds nuw i8, ptr %0, i64 528
  store i32 36, ptr %12, align 8, !tbaa !71
  br label %16

13:                                               ; preds = %4
  %.not10 = icmp eq i8 %1, 0
  br i1 %.not10, label %15, label %14

14:                                               ; preds = %13
  store i32 3, ptr %5, align 8, !tbaa !79
  br label %16

15:                                               ; preds = %13
  store i32 2, ptr %5, align 8, !tbaa !79
  br label %16

16:                                               ; preds = %10, %15, %14, %2, %11, %8
  %.0 = phi i32 [ 0, %11 ], [ 0, %8 ], [ 0, %2 ], [ 1, %14 ], [ 1, %15 ], [ 1, %10 ]
  ret i32 %.0
}